; Function Attrs: nounwind uwtable
define ptr @Gia_ManFalseRebuild(ptr noundef %0, ptr noundef readonly captures(none) %1, i32 %2, i32 noundef %3) local_unnamed_addr #0 {
  %5 = getelementptr i8, ptr %0, i64 24
  %.val48 = load i32, ptr %5, align 8, !tbaa !39
  %6 = shl nsw i32 %.val48, 2
  %7 = sdiv i32 %6, 3
  %8 = tail call ptr @Gia_ManStart(i32 noundef %7) #17
  %9 = load ptr, ptr %0, align 8, !tbaa !40
  %.not.i = icmp eq ptr %9, null
  br i1 %.not.i, label %Abc_UtilStrsav.exit, label %10

10:                                               ; preds = %4
  %11 = tail call i64 @strlen(ptr noundef nonnull readonly dereferenceable(1) %9) #20
  %12 = add i64 %11, 1
  %13 = tail call noalias ptr @malloc(i64 noundef %12) #19
  %14 = tail call ptr @strcpy(ptr noundef nonnull dereferenceable(1) %13, ptr noundef nonnull readonly dereferenceable(1) %9) #17
  br label %Abc_UtilStrsav.exit

Abc_UtilStrsav.exit:                              ; preds = %4, %10
  %15 = phi ptr [ %13, %10 ], [ null, %4 ]
  store ptr %15, ptr %8, align 8, !tbaa !40
  %16 = getelementptr inbounds nuw i8, ptr %0, i64 8
  %17 = load ptr, ptr %16, align 8, !tbaa !41
  %.not.i57 = icmp eq ptr %17, null
  br i1 %.not.i57, label %Abc_UtilStrsav.exit58, label %18

18:                                               ; preds = %Abc_UtilStrsav.exit
  %19 = tail call i64 @strlen(ptr noundef nonnull readonly dereferenceable(1) %17) #20
  %20 = add i64 %19, 1
  %21 = tail call noalias ptr @malloc(i64 noundef %20) #19
  %22 = tail call ptr @strcpy(ptr noundef nonnull dereferenceable(1) %21, ptr noundef nonnull readonly dereferenceable(1) %17) #17
  br label %Abc_UtilStrsav.exit58

Abc_UtilStrsav.exit58:                            ; preds = %Abc_UtilStrsav.exit, %18
  %23 = phi ptr [ %21, %18 ], [ null, %Abc_UtilStrsav.exit ]
  %24 = getelementptr inbounds nuw i8, ptr %8, i64 8
  store ptr %23, ptr %24, align 8, !tbaa !41
  %25 = getelementptr i8, ptr %0, i64 32
  %.val49 = load ptr, ptr %25, align 8, !tbaa !11
  %26 = getelementptr inbounds nuw i8, ptr %.val49, i64 8
  store i32 0, ptr %26, align 4, !tbaa !31
  tail call void @Gia_ManHashAlloc(ptr noundef nonnull %8) #17
  %27 = load i32, ptr %5, align 8, !tbaa !39
  %28 = icmp sgt i32 %27, 1
  br i1 %28, label %.lr.ph, label %.critedge

.lr.ph:                                           ; preds = %Abc_UtilStrsav.exit58
  %29 = getelementptr i8, ptr %1, i64 8
  %.not47 = icmp eq i32 %3, 0
  br label %30

30:                                               ; preds = %.lr.ph, %78
  %indvars.iv = phi i64 [ 1, %.lr.ph ], [ %indvars.iv.next, %78 ]
  %.064 = phi i32 [ 0, %.lr.ph ], [ %.2, %78 ]
  %.val = load ptr, ptr %25, align 8, !tbaa !11
  %31 = getelementptr inbounds nuw %struct.Gia_Obj_t_, ptr %.val, i64 %indvars.iv
  %.val50 = load i64, ptr %31, align 4
  %32 = and i64 %.val50, 2147483648
  %.not.i59 = icmp eq i64 %32, 0
  %33 = and i64 %.val50, 536870911
  %34 = icmp ne i64 %33, 536870911
  %narrow.i = and i1 %.not.i59, %34
  br i1 %narrow.i, label %35, label %62

35:                                               ; preds = %30
  %.val51 = load ptr, ptr %29, align 8, !tbaa !42
  %36 = getelementptr %struct.Vec_Int_t_, ptr %.val51, i64 %indvars.iv, i32 1
  %.val.i = load i32, ptr %36, align 4, !tbaa !30
  %37 = icmp sgt i32 %.val.i, 0
  br i1 %37, label %38, label %43

38:                                               ; preds = %35
  br i1 %.not47, label %.split, label %.split41

.split:                                           ; preds = %38
  %39 = getelementptr inbounds nuw %struct.Vec_Int_t_, ptr %.val51, i64 %indvars.iv
  tail call void @Gia_ManFalseRebuildOne(ptr noundef nonnull %8, ptr noundef nonnull %0, ptr noundef nonnull %39, i32 poison, i32 noundef 0)
  br label %78

.split41:                                         ; preds = %38
  %40 = tail call i32 (ptr, ...) @printf(ptr noundef nonnull dereferenceable(1) @.str.2, i32 noundef %.064)
  %41 = add nsw i32 %.064, 1
  %.val52 = load ptr, ptr %29, align 8, !tbaa !42
  %42 = getelementptr inbounds nuw %struct.Vec_Int_t_, ptr %.val52, i64 %indvars.iv
  tail call void @Gia_ManFalseRebuildOne(ptr noundef nonnull %8, ptr noundef nonnull %0, ptr noundef nonnull %42, i32 poison, i32 noundef %3)
  br label %78

43:                                               ; preds = %35
  %44 = sub nsw i64 0, %33
  %45 = getelementptr inbounds %struct.Gia_Obj_t_, ptr %31, i64 %44, i32 1
  %46 = load i32, ptr %45, align 4, !tbaa !31
  %47 = trunc i64 %.val50 to i32
  %48 = lshr i32 %47, 29
  %49 = and i32 %48, 1
  %50 = xor i32 %46, %49
  %51 = lshr i64 %.val50, 32
  %52 = and i64 %51, 536870911
  %53 = sub nsw i64 0, %52
  %54 = getelementptr inbounds %struct.Gia_Obj_t_, ptr %31, i64 %53, i32 1
  %55 = load i32, ptr %54, align 4, !tbaa !31
  %56 = lshr i64 %.val50, 61
  %57 = trunc nuw nsw i64 %56 to i32
  %58 = and i32 %57, 1
  %59 = xor i32 %55, %58
  %60 = tail call i32 @Gia_ManHashAnd(ptr noundef nonnull %8, i32 noundef %50, i32 noundef %59) #17
  %61 = getelementptr inbounds nuw i8, ptr %31, i64 8
  store i32 %60, ptr %61, align 4, !tbaa !31
  br label %78

62:                                               ; preds = %30
  %63 = and i64 %.val50, 2684354559
  %narrow.i60.not = icmp eq i64 %63, 2684354559
  br i1 %narrow.i60.not, label %64, label %67

64:                                               ; preds = %62
  %65 = tail call fastcc i32 @Gia_ManAppendCi(ptr noundef nonnull %8)
  %66 = getelementptr inbounds nuw i8, ptr %31, i64 8
  store i32 %65, ptr %66, align 4, !tbaa !31
  br label %78

67:                                               ; preds = %62
  %.not.i61 = icmp ne i64 %32, 0
  %narrow.i62 = and i1 %.not.i61, %34
  br i1 %narrow.i62, label %68, label %78

68:                                               ; preds = %67
  %69 = sub nsw i64 0, %33
  %70 = getelementptr inbounds %struct.Gia_Obj_t_, ptr %31, i64 %69, i32 1
  %71 = load i32, ptr %70, align 4, !tbaa !31
  %72 = trunc i64 %.val50 to i32
  %73 = lshr i32 %72, 29
  %74 = and i32 %73, 1
  %75 = xor i32 %71, %74
  %76 = tail call fastcc i32 @Gia_ManAppendCo(ptr noundef nonnull %8, i32 noundef %75)
  %77 = getelementptr inbounds nuw i8, ptr %31, i64 8
  store i32 %76, ptr %77, align 4, !tbaa !31
  br label %78

78:                                               ; preds = %.split41, %.split, %43, %67, %68, %64
  %.2 = phi i32 [ %.064, %43 ], [ %.064, %64 ], [ %.064, %68 ], [ %.064, %67 ], [ %41, %.split41 ], [ %.064, %.split ]
  %indvars.iv.next = add nuw nsw i64 %indvars.iv, 1
  %79 = load i32, ptr %5, align 8, !tbaa !39
  %80 = sext i32 %79 to i64
  %81 = icmp slt i64 %indvars.iv.next, %80
  br i1 %81, label %30, label %.critedge, !llvm.loop !44

.critedge:                                        ; preds = %78, %Abc_UtilStrsav.exit58
  tail call void @Gia_ManHashStop(ptr noundef nonnull %8) #17
  %82 = getelementptr i8, ptr %0, i64 16
  %.val56 = load i32, ptr %82, align 8, !tbaa !45
  tail call void @Gia_ManSetRegNum(ptr noundef nonnull %8, i32 noundef %.val56) #17
  %83 = tail call ptr @Gia_ManCleanup(ptr noundef nonnull %8) #17
  tail call void @Gia_ManStop(ptr noundef nonnull %8) #17
  ret ptr %83
}